; Function Attrs: mustprogress nounwind uwtable
define hidden noundef range(i32 0, 2) i32 @_ZN19G1HeapRegionManager24expand_on_preferred_nodeEj(ptr noundef nonnull align 8 dereferenceable(232) %0, i32 noundef %1) local_unnamed_addr #0 align 2 {
  %3 = getelementptr inbounds i8, ptr %0, i64 112
  %4 = load i64, ptr %3, align 8
  %5 = trunc i64 %4 to i32
  %6 = getelementptr inbounds i8, ptr %0, i64 16
  %7 = tail call noundef i32 @_ZNK20G1CommittedRegionMap10num_activeEv(ptr noundef nonnull align 8 dereferenceable(64) %6) #16
  %.not = icmp eq i32 %7, %5
  br i1 %.not, label %.thread, label %.preheader

.preheader:                                       ; preds = %2
  %8 = load i64, ptr %3, align 8
  %9 = and i64 %8, 4294967295
  %.not20 = icmp eq i64 %9, 0
  br i1 %.not20, label %.thread, label %.lr.ph

.lr.ph:                                           ; preds = %.preheader
  %10 = getelementptr inbounds i8, ptr %0, i64 24
  br label %11

11:                                               ; preds = %.lr.ph, %24
  %indvars.iv = phi i64 [ 0, %.lr.ph ], [ %indvars.iv.next, %24 ]
  %.0918 = phi i32 [ -1, %.lr.ph ], [ %.1, %24 ]
  %12 = load ptr, ptr %10, align 8
  %13 = lshr i64 %indvars.iv, 6
  %14 = getelementptr inbounds i64, ptr %12, i64 %13
  %15 = load volatile i64, ptr %14, align 8
  tail call void asm sideeffect "", "~{memory},~{dirflag},~{fpsr},~{flags}"() #16, !srcloc !11
  %16 = and i64 %indvars.iv, 63
  %17 = shl nuw i64 1, %16
  %18 = and i64 %15, %17
  %.not15 = icmp eq i64 %18, 0
  br i1 %.not15, label %19, label %24

19:                                               ; preds = %11
  %20 = load ptr, ptr @_ZN6G1NUMA5_instE, align 8
  %21 = trunc nuw i64 %indvars.iv to i32
  %22 = tail call noundef i32 @_ZNK6G1NUMA30preferred_node_index_for_indexEj(ptr noundef nonnull align 8 dereferenceable(56) %20, i32 noundef %21) #16
  %23 = icmp eq i32 %22, %1
  br i1 %23, label %.thread12, label %24

24:                                               ; preds = %19, %11
  %.1 = phi i32 [ %.0918, %11 ], [ %21, %19 ]
  %indvars.iv.next = add nuw nsw i64 %indvars.iv, 1
  %25 = load i64, ptr %3, align 8
  %26 = and i64 %25, 4294967295
  %27 = icmp ult i64 %indvars.iv.next, %26
  br i1 %27, label %11, label %._crit_edge, !llvm.loop !23

._crit_edge:                                      ; preds = %24
  %28 = icmp eq i32 %.1, -1
  br i1 %28, label %.thread, label %.thread12

.thread12:                                        ; preds = %19, %._crit_edge
  %.214 = phi i32 [ %.1, %._crit_edge ], [ %21, %19 ]
  tail call void @_ZN19G1HeapRegionManager12expand_exactEjjP13WorkerThreads(ptr noundef nonnull align 8 dereferenceable(232) %0, i32 noundef %.214, i32 noundef 1, ptr noundef null)
  br label %.thread

.thread:                                          ; preds = %.preheader, %2, %._crit_edge, %.thread12
  %.010 = phi i32 [ 1, %.thread12 ], [ 0, %._crit_edge ], [ 0, %2 ], [ 0, %.preheader ]
  ret i32 %.010
}